target datalayout = "e-m:e-p270:32:32-p271:32:32-p272:64:64-i64:64-i128:128-f80:128-n8:16:32:64-S128"
target triple = "x86_64-pc-linux-gnu"

%struct.dirent = type { i64, i64, i16, i8, [256 x i8] }

@.str.35 = private unnamed_addr constant [17 x i8] c"pg_internal.init\00", align 1
@.str.39 = private unnamed_addr constant [11 x i8] c"0123456789\00", align 1
@.str.40 = private unnamed_addr constant [9 x i8] c"%s/%s/%s\00", align 1

; Function Attrs: nounwind uwtable
define internal void @RelationCacheInitFileRemoveInDir(ptr noundef %0) #0 {
  %2 = alloca ptr, align 8
  %3 = alloca ptr, align 8
  %4 = alloca ptr, align 8
  %5 = alloca [2048 x i8], align 16
  store ptr %0, ptr %2, align 8
  call void @llvm.lifetime.start.p0(i64 8, ptr %3) #11
  call void @llvm.lifetime.start.p0(i64 8, ptr %4) #11
  call void @llvm.lifetime.start.p0(i64 2048, ptr %5) #11
  %6 = load ptr, ptr %2, align 8
  %7 = call ptr @AllocateDir(ptr noundef %6)
  store ptr %7, ptr %3, align 8
  br label %8

8:                                                ; preds = %31, %1
  %9 = load ptr, ptr %3, align 8
  %10 = load ptr, ptr %2, align 8
  %11 = call ptr @ReadDirExtended(ptr noundef %9, ptr noundef %10, i32 noundef 15)
  store ptr %11, ptr %4, align 8
  %12 = icmp ne ptr %11, null
  br i1 %12, label %13, label %32

13:                                               ; preds = %8
  %14 = load ptr, ptr %4, align 8
  %15 = getelementptr inbounds nuw %struct.dirent, ptr %14, i32 0, i32 4
  %16 = getelementptr inbounds [256 x i8], ptr %15, i64 0, i64 0
  %17 = call i64 @strspn(ptr noundef %16, ptr noundef @.str.39) #14
  %18 = load ptr, ptr %4, align 8
  %19 = getelementptr inbounds nuw %struct.dirent, ptr %18, i32 0, i32 4
  %20 = getelementptr inbounds [256 x i8], ptr %19, i64 0, i64 0
  %21 = call i64 @strlen(ptr noundef %20) #14
  %22 = icmp eq i64 %17, %21
  br i1 %22, label %23, label %31

23:                                               ; preds = %13
  %24 = getelementptr inbounds [2048 x i8], ptr %5, i64 0, i64 0
  %25 = load ptr, ptr %2, align 8
  %26 = load ptr, ptr %4, align 8
  %27 = getelementptr inbounds nuw %struct.dirent, ptr %26, i32 0, i32 4
  %28 = getelementptr inbounds [256 x i8], ptr %27, i64 0, i64 0
  %29 = call i32 (ptr, i64, ptr, ...) @pg_snprintf(ptr noundef %24, i64 noundef 2048, ptr noundef @.str.40, ptr noundef %25, ptr noundef %28, ptr noundef @.str.35)
  %30 = getelementptr inbounds [2048 x i8], ptr %5, i64 0, i64 0
  call void @unlink_initfile(ptr noundef %30, i32 noundef 15)
  br label %31

31:                                               ; preds = %23, %13
  br label %8, !llvm.loop !44

32:                                               ; preds = %8
  %33 = load ptr, ptr %3, align 8
  %34 = call i32 @FreeDir(ptr noundef %33)
  call void @llvm.lifetime.end.p0(i64 2048, ptr %5) #11
  call void @llvm.lifetime.end.p0(i64 8, ptr %4) #11
  call void @llvm.lifetime.end.p0(i64 8, ptr %3) #11
  ret void
}