; Function Attrs: nounwind uwtable
define internal fastcc void @RelationCacheInitFileRemoveInDir(ptr noundef %0) unnamed_addr #0 {
  %2 = alloca [2048 x i8], align 16
  call void @llvm.lifetime.start.p0(i64 2048, ptr nonnull %2) #13
  %3 = tail call ptr @AllocateDir(ptr noundef %0) #13
  %4 = tail call ptr @ReadDirExtended(ptr noundef %3, ptr noundef %0, i32 noundef 15) #13
  %.not8 = icmp eq ptr %4, null
  br i1 %.not8, label %._crit_edge, label %.lr.ph

.lr.ph:                                           ; preds = %1, %12
  %5 = phi ptr [ %13, %12 ], [ %4, %1 ]
  %6 = getelementptr inbounds nuw i8, ptr %5, i64 19
  %7 = call i64 @strspn(ptr noundef nonnull %6, ptr noundef nonnull @.str.39) #15
  %8 = call i64 @strlen(ptr noundef nonnull dereferenceable(1) %6) #15
  %9 = icmp eq i64 %7, %8
  br i1 %9, label %10, label %12

10:                                               ; preds = %.lr.ph
  %11 = call i32 (ptr, i64, ptr, ...) @pg_snprintf(ptr noundef nonnull %2, i64 noundef 2048, ptr noundef nonnull @.str.40, ptr noundef %0, ptr noundef nonnull %6, ptr noundef nonnull @.str.35) #13
  call fastcc void @unlink_initfile(ptr noundef %2, i32 noundef 15)
  br label %12

12:                                               ; preds = %10, %.lr.ph
  %13 = call ptr @ReadDirExtended(ptr noundef %3, ptr noundef %0, i32 noundef 15) #13
  %.not = icmp eq ptr %13, null
  br i1 %.not, label %._crit_edge, label %.lr.ph, !llvm.loop !46

._crit_edge:                                      ; preds = %12, %1
  %14 = call i32 @FreeDir(ptr noundef %3) #13
  call void @llvm.lifetime.end.p0(i64 2048, ptr nonnull %2) #13
  ret void
}